; Function Attrs: mustprogress nofree norecurse nosync nounwind willreturn memory(argmem: readwrite) uwtable
define void @_ZN7rocksdb17BaseDeltaIterator20ResetValueAndColumnsEv(ptr noundef nonnull align 8 captures(none) dereferenceable(200) initializes((160, 176)) %0) local_unnamed_addr #10 align 2 personality ptr @__gxx_personality_v0 {
  %2 = getelementptr inbounds nuw i8, ptr %0, i64 160
  store ptr @.str, ptr %2, align 8, !tbaa !104
  %3 = getelementptr inbounds nuw i8, ptr %0, i64 168
  store i64 0, ptr %3, align 8, !tbaa !144
  %4 = getelementptr inbounds nuw i8, ptr %0, i64 176
  %5 = load ptr, ptr %4, align 8, !tbaa !116
  %6 = getelementptr inbounds nuw i8, ptr %0, i64 184
  %7 = load ptr, ptr %6, align 8, !tbaa !145
  %.not.i.i = icmp eq ptr %7, %5
  br i1 %.not.i.i, label %_ZNSt6vectorIN7rocksdb10WideColumnESaIS1_EE5clearEv.exit, label %8

8:                                                ; preds = %1
  store ptr %5, ptr %6, align 8, !tbaa !145
  br label %_ZNSt6vectorIN7rocksdb10WideColumnESaIS1_EE5clearEv.exit

_ZNSt6vectorIN7rocksdb10WideColumnESaIS1_EE5clearEv.exit: ; preds = %1, %8
  ret void
}